target datalayout = "e-m:e-p270:32:32-p271:32:32-p272:64:64-i64:64-i128:128-f80:128-n8:16:32:64-S128"
target triple = "x86_64-pc-linux-gnu"

@.str.169 = private unnamed_addr constant [57 x i8] c"get_unicode_name: Unable to allocate memory for newname\0A\00", align 1
@.str.170 = private unnamed_addr constant [42 x i8] c"get_unicode_name: odd number of bytes %d\0A\00", align 1

; Function Attrs: nounwind uwtable
define internal ptr @get_unicode_name(ptr noundef %0, i32 noundef %1, i32 noundef %2) #0 {
  %4 = alloca ptr, align 8
  %5 = alloca ptr, align 8
  %6 = alloca i32, align 4
  %7 = alloca i32, align 4
  %8 = alloca i32, align 4
  %9 = alloca i32, align 4
  %10 = alloca ptr, align 8
  %11 = alloca ptr, align 8
  %12 = alloca i16, align 2
  store ptr %0, ptr %5, align 8
  store i32 %1, ptr %6, align 4
  store i32 %2, ptr %7, align 4
  %13 = load ptr, ptr %5, align 8
  %14 = icmp eq ptr %13, null
  br i1 %14, label %23, label %15

15:                                               ; preds = %3
  %16 = load ptr, ptr %5, align 8
  %17 = load i8, ptr %16, align 1
  %18 = sext i8 %17 to i32
  %19 = icmp eq i32 %18, 0
  br i1 %19, label %23, label %20

20:                                               ; preds = %15
  %21 = load i32, ptr %6, align 4
  %22 = icmp sle i32 %21, 0
  br i1 %22, label %23, label %24

23:                                               ; preds = %20, %15, %3
  store ptr null, ptr %4, align 8
  br label %206

24:                                               ; preds = %20
  %25 = load i32, ptr %6, align 4
  %26 = mul nsw i32 %25, 7
  %27 = add nsw i32 %26, 1
  %28 = sext i32 %27 to i64
  %29 = call ptr @cli_max_malloc(i64 noundef %28)
  store ptr %29, ptr %10, align 8
  %30 = load ptr, ptr %10, align 8
  %31 = icmp eq ptr %30, null
  br i1 %31, label %32, label %33

32:                                               ; preds = %24
  call void (ptr, ...) @cli_errmsg(ptr noundef @.str.169)
  store ptr null, ptr %4, align 8
  br label %206

33:                                               ; preds = %24
  %34 = load i32, ptr %7, align 4
  %35 = icmp ne i32 %34, 0
  br i1 %35, label %44, label %36

36:                                               ; preds = %33
  %37 = load i32, ptr %6, align 4
  %38 = and i32 %37, 1
  %39 = icmp ne i32 %38, 0
  br i1 %39, label %40, label %44

40:                                               ; preds = %36
  %41 = load i32, ptr %6, align 4
  call void (ptr, ...) @cli_dbgmsg(ptr noundef @.str.170, i32 noundef %41)
  %42 = load i32, ptr %6, align 4
  %43 = add nsw i32 %42, -1
  store i32 %43, ptr %6, align 4
  br label %44

44:                                               ; preds = %40, %36, %33
  %45 = load i32, ptr %7, align 4
  %46 = icmp ne i32 %45, 0
  %47 = select i1 %46, i32 1, i32 2
  store i32 %47, ptr %9, align 4
  %48 = load ptr, ptr %10, align 8
  store ptr %48, ptr %11, align 8
  store i32 0, ptr %8, align 4
  br label %49

49:                                               ; preds = %184, %44
  %50 = load i32, ptr %8, align 4
  %51 = load i32, ptr %6, align 4
  %52 = icmp slt i32 %50, %51
  br i1 %52, label %53, label %188

53:                                               ; preds = %49
  %54 = load ptr, ptr %5, align 8
  %55 = load i32, ptr %8, align 4
  %56 = sext i32 %55 to i64
  %57 = getelementptr inbounds i8, ptr %54, i64 %56
  %58 = load i8, ptr %57, align 1
  %59 = sext i8 %58 to i32
  %60 = and i32 %59, 128
  %61 = icmp ne i32 %60, 0
  br i1 %61, label %88, label %62

62:                                               ; preds = %53
  %63 = call ptr @__ctype_b_loc() #11
  %64 = load ptr, ptr %63, align 8
  %65 = load ptr, ptr %5, align 8
  %66 = load i32, ptr %8, align 4
  %67 = sext i32 %66 to i64
  %68 = getelementptr inbounds i8, ptr %65, i64 %67
  %69 = load i8, ptr %68, align 1
  %70 = sext i8 %69 to i32
  %71 = sext i32 %70 to i64
  %72 = getelementptr inbounds i16, ptr %64, i64 %71
  %73 = load i16, ptr %72, align 2
  %74 = zext i16 %73 to i32
  %75 = and i32 %74, 16384
  %76 = icmp ne i32 %75, 0
  br i1 %76, label %77, label %88

77:                                               ; preds = %62
  %78 = load ptr, ptr %5, align 8
  %79 = load i32, ptr %8, align 4
  %80 = sext i32 %79 to i64
  %81 = getelementptr inbounds i8, ptr %78, i64 %80
  %82 = load i8, ptr %81, align 1
  %83 = sext i8 %82 to i32
  %84 = call i32 @tolower(i32 noundef %83) #9
  %85 = trunc i32 %84 to i8
  %86 = load ptr, ptr %11, align 8
  %87 = getelementptr inbounds i8, ptr %86, i32 1
  store ptr %87, ptr %11, align 8
  store i8 %85, ptr %86, align 1
  br label %183

88:                                               ; preds = %62, %53
  %89 = load ptr, ptr %5, align 8
  %90 = load i32, ptr %8, align 4
  %91 = sext i32 %90 to i64
  %92 = getelementptr inbounds i8, ptr %89, i64 %91
  %93 = load i8, ptr %92, align 1
  %94 = sext i8 %93 to i32
  %95 = icmp slt i32 %94, 10
  br i1 %95, label %96, label %117

96:                                               ; preds = %88
  %97 = load ptr, ptr %5, align 8
  %98 = load i32, ptr %8, align 4
  %99 = sext i32 %98 to i64
  %100 = getelementptr inbounds i8, ptr %97, i64 %99
  %101 = load i8, ptr %100, align 1
  %102 = sext i8 %101 to i32
  %103 = icmp sge i32 %102, 0
  br i1 %103, label %104, label %117

104:                                              ; preds = %96
  %105 = load ptr, ptr %11, align 8
  %106 = getelementptr inbounds i8, ptr %105, i32 1
  store ptr %106, ptr %11, align 8
  store i8 95, ptr %105, align 1
  %107 = load ptr, ptr %5, align 8
  %108 = load i32, ptr %8, align 4
  %109 = sext i32 %108 to i64
  %110 = getelementptr inbounds i8, ptr %107, i64 %109
  %111 = load i8, ptr %110, align 1
  %112 = sext i8 %111 to i32
  %113 = add nsw i32 %112, 48
  %114 = trunc i32 %113 to i8
  %115 = load ptr, ptr %11, align 8
  %116 = getelementptr inbounds i8, ptr %115, i32 1
  store ptr %116, ptr %11, align 8
  store i8 %114, ptr %115, align 1
  br label %180

117:                                              ; preds = %96, %88
  %118 = load i32, ptr %8, align 4
  %119 = add nsw i32 %118, 1
  %120 = load i32, ptr %6, align 4
  %121 = icmp sge i32 %119, %120
  br i1 %121, label %122, label %123

122:                                              ; preds = %117
  br label %188

123:                                              ; preds = %117
  %124 = load ptr, ptr %5, align 8
  %125 = load i32, ptr %8, align 4
  %126 = sext i32 %125 to i64
  %127 = getelementptr inbounds i8, ptr %124, i64 %126
  %128 = load i8, ptr %127, align 1
  %129 = sext i8 %128 to i32
  %130 = icmp slt i32 %129, 0
  br i1 %130, label %131, label %132

131:                                              ; preds = %123
  br label %140

132:                                              ; preds = %123
  %133 = load ptr, ptr %5, align 8
  %134 = load i32, ptr %8, align 4
  %135 = sext i32 %134 to i64
  %136 = getelementptr inbounds i8, ptr %133, i64 %135
  %137 = load i8, ptr %136, align 1
  %138 = sext i8 %137 to i32
  %139 = shl i32 %138, 8
  br label %140

140:                                              ; preds = %132, %131
  %141 = phi i32 [ 0, %131 ], [ %139, %132 ]
  %142 = load ptr, ptr %5, align 8
  %143 = load i32, ptr %8, align 4
  %144 = add nsw i32 %143, 1
  %145 = sext i32 %144 to i64
  %146 = getelementptr inbounds i8, ptr %142, i64 %145
  %147 = load i8, ptr %146, align 1
  %148 = sext i8 %147 to i32
  %149 = or i32 %141, %148
  %150 = trunc i32 %149 to i16
  store i16 %150, ptr %12, align 2
  %151 = load ptr, ptr %11, align 8
  %152 = getelementptr inbounds i8, ptr %151, i32 1
  store ptr %152, ptr %11, align 8
  store i8 95, ptr %151, align 1
  %153 = load i16, ptr %12, align 2
  %154 = zext i16 %153 to i32
  %155 = and i32 %154, 15
  %156 = add nsw i32 97, %155
  %157 = trunc i32 %156 to i8
  %158 = load ptr, ptr %11, align 8
  %159 = getelementptr inbounds i8, ptr %158, i32 1
  store ptr %159, ptr %11, align 8
  store i8 %157, ptr %158, align 1
  %160 = load i16, ptr %12, align 2
  %161 = zext i16 %160 to i32
  %162 = ashr i32 %161, 4
  %163 = and i32 %162, 15
  %164 = add nsw i32 97, %163
  %165 = trunc i32 %164 to i8
  %166 = load ptr, ptr %11, align 8
  %167 = getelementptr inbounds i8, ptr %166, i32 1
  store ptr %167, ptr %11, align 8
  store i8 %165, ptr %166, align 1
  %168 = load i16, ptr %12, align 2
  %169 = zext i16 %168 to i32
  %170 = ashr i32 %169, 8
  %171 = and i32 %170, 15
  %172 = add nsw i32 97, %171
  %173 = trunc i32 %172 to i8
  %174 = load ptr, ptr %11, align 8
  %175 = getelementptr inbounds i8, ptr %174, i32 1
  store ptr %175, ptr %11, align 8
  store i8 %173, ptr %174, align 1
  %176 = load ptr, ptr %11, align 8
  %177 = getelementptr inbounds i8, ptr %176, i32 1
  store ptr %177, ptr %11, align 8
  store i8 97, ptr %176, align 1
  %178 = load ptr, ptr %11, align 8
  %179 = getelementptr inbounds i8, ptr %178, i32 1
  store ptr %179, ptr %11, align 8
  store i8 97, ptr %178, align 1
  br label %180

180:                                              ; preds = %140, %104
  %181 = load ptr, ptr %11, align 8
  %182 = getelementptr inbounds i8, ptr %181, i32 1
  store ptr %182, ptr %11, align 8
  store i8 95, ptr %181, align 1
  br label %183

183:                                              ; preds = %180, %77
  br label %184

184:                                              ; preds = %183
  %185 = load i32, ptr %9, align 4
  %186 = load i32, ptr %8, align 4
  %187 = add nsw i32 %186, %185
  store i32 %187, ptr %8, align 4
  br label %49

188:                                              ; preds = %122, %49
  %189 = load ptr, ptr %11, align 8
  store i8 0, ptr %189, align 1
  %190 = load ptr, ptr %10, align 8
  %191 = load ptr, ptr %11, align 8
  %192 = load ptr, ptr %10, align 8
  %193 = ptrtoint ptr %191 to i64
  %194 = ptrtoint ptr %192 to i64
  %195 = sub i64 %193, %194
  %196 = add nsw i64 %195, 1
  %197 = call ptr @cli_max_realloc(ptr noundef %190, i64 noundef %196)
  store ptr %197, ptr %11, align 8
  %198 = load ptr, ptr %11, align 8
  %199 = icmp ne ptr %198, null
  br i1 %199, label %200, label %202

200:                                              ; preds = %188
  %201 = load ptr, ptr %11, align 8
  br label %204

202:                                              ; preds = %188
  %203 = load ptr, ptr %10, align 8
  br label %204

204:                                              ; preds = %202, %200
  %205 = phi ptr [ %201, %200 ], [ %203, %202 ]
  store ptr %205, ptr %4, align 8
  br label %206

206:                                              ; preds = %204, %32, %23
  %207 = load ptr, ptr %4, align 8
  ret ptr %207
}