; Function Attrs: nounwind uwtable
define internal fastcc ptr @get_unicode_name(ptr noundef readonly %0, i32 noundef %1, i32 noundef %2) unnamed_addr #0 {
  %4 = icmp eq ptr %0, null
  br i1 %4, label %77, label %5

5:                                                ; preds = %3
  %6 = load i8, ptr %0, align 1
  %7 = icmp eq i8 %6, 0
  %8 = icmp slt i32 %1, 1
  %or.cond = or i1 %8, %7
  br i1 %or.cond, label %77, label %9

9:                                                ; preds = %5
  %10 = mul nuw nsw i32 %1, 7
  %11 = add nuw nsw i32 %10, 1
  %12 = zext nneg i32 %11 to i64
  %13 = tail call ptr @cli_max_malloc(i64 noundef %12) #17
  %14 = icmp eq ptr %13, null
  br i1 %14, label %15, label %16

15:                                               ; preds = %9
  tail call void (ptr, ...) @cli_errmsg(ptr noundef nonnull @.str.169) #17
  br label %77

16:                                               ; preds = %9
  %.not = icmp eq i32 %2, 0
  br i1 %.not, label %17, label %.lr.ph.preheader

17:                                               ; preds = %16
  %18 = and i32 %1, 1
  %.not65 = icmp eq i32 %18, 0
  br i1 %.not65, label %.lr.ph.preheader, label %19

19:                                               ; preds = %17
  tail call void (ptr, ...) @cli_dbgmsg(ptr noundef nonnull @.str.170, i32 noundef %1) #17
  %20 = add nsw i32 %1, -1
  %.not79 = icmp eq i32 %20, 0
  br i1 %.not79, label %._crit_edge, label %.lr.ph.preheader

.lr.ph.preheader:                                 ; preds = %17, %16, %19
  %.05778 = phi i32 [ %20, %19 ], [ %1, %16 ], [ %1, %17 ]
  %21 = phi i64 [ 2, %19 ], [ 1, %16 ], [ 2, %17 ]
  %sext = zext nneg i32 %.05778 to i64
  br label %.lr.ph

.lr.ph:                                           ; preds = %.lr.ph.preheader, %69
  %indvars.iv = phi i64 [ 0, %.lr.ph.preheader ], [ %indvars.iv.next, %69 ]
  %.05673 = phi ptr [ %13, %.lr.ph.preheader ], [ %.2, %69 ]
  %22 = getelementptr inbounds i8, ptr %0, i64 %indvars.iv
  %23 = load i8, ptr %22, align 1
  %24 = sext i8 %23 to i32
  %25 = and i32 %24, 128
  %.not66 = icmp eq i32 %25, 0
  br i1 %.not66, label %26, label %36

26:                                               ; preds = %.lr.ph
  %27 = tail call ptr @__ctype_b_loc() #20
  %28 = load ptr, ptr %27, align 8
  %29 = sext i8 %23 to i64
  %30 = getelementptr inbounds i16, ptr %28, i64 %29
  %31 = load i16, ptr %30, align 2
  %32 = and i16 %31, 16384
  %.not67 = icmp eq i16 %32, 0
  br i1 %.not67, label %36, label %33

33:                                               ; preds = %26
  %34 = tail call i32 @tolower(i32 noundef %24) #18
  %35 = trunc i32 %34 to i8
  store i8 %35, ptr %.05673, align 1
  br label %69

36:                                               ; preds = %26, %.lr.ph
  %or.cond70 = icmp ult i8 %23, 10
  br i1 %or.cond70, label %37, label %42

37:                                               ; preds = %36
  %38 = getelementptr inbounds i8, ptr %.05673, i64 1
  store i8 95, ptr %.05673, align 1
  %39 = load i8, ptr %22, align 1
  %40 = add i8 %39, 48
  %41 = getelementptr inbounds i8, ptr %.05673, i64 2
  store i8 %40, ptr %38, align 1
  br label %68

42:                                               ; preds = %36
  %43 = add nuw nsw i64 %indvars.iv, 1
  %44 = icmp ult i64 %43, %sext
  br i1 %44, label %45, label %._crit_edge

45:                                               ; preds = %42
  %46 = icmp slt i8 %23, 0
  %47 = zext nneg i8 %23 to i32
  %48 = shl nuw nsw i32 %47, 8
  %49 = select i1 %46, i32 0, i32 %48
  %50 = getelementptr inbounds i8, ptr %0, i64 %43
  %51 = load i8, ptr %50, align 1
  %52 = sext i8 %51 to i32
  %53 = or i32 %49, %52
  %54 = getelementptr inbounds i8, ptr %.05673, i64 1
  store i8 95, ptr %.05673, align 1
  %55 = and i8 %51, 15
  %56 = add nuw nsw i8 %55, 97
  %57 = getelementptr inbounds i8, ptr %.05673, i64 2
  store i8 %56, ptr %54, align 1
  %58 = lshr i8 %51, 4
  %59 = add nuw nsw i8 %58, 97
  %60 = getelementptr inbounds i8, ptr %.05673, i64 3
  store i8 %59, ptr %57, align 1
  %61 = lshr i32 %53, 8
  %62 = trunc i32 %61 to i8
  %63 = and i8 %62, 15
  %64 = add nuw nsw i8 %63, 97
  %65 = getelementptr inbounds i8, ptr %.05673, i64 4
  store i8 %64, ptr %60, align 1
  %66 = getelementptr inbounds i8, ptr %.05673, i64 5
  store i8 97, ptr %65, align 1
  %67 = getelementptr inbounds i8, ptr %.05673, i64 6
  store i8 97, ptr %66, align 1
  br label %68

68:                                               ; preds = %45, %37
  %.1 = phi ptr [ %41, %37 ], [ %67, %45 ]
  store i8 95, ptr %.1, align 1
  br label %69

69:                                               ; preds = %33, %68
  %.1.pn = phi ptr [ %.1, %68 ], [ %.05673, %33 ]
  %.2 = getelementptr inbounds i8, ptr %.1.pn, i64 1
  %indvars.iv.next = add nuw nsw i64 %indvars.iv, %21
  %70 = trunc nuw i64 %indvars.iv.next to i32
  %71 = icmp sgt i32 %.05778, %70
  br i1 %71, label %.lr.ph, label %._crit_edge

._crit_edge:                                      ; preds = %69, %42, %19
  %.056.lcssa = phi ptr [ %13, %19 ], [ %.05673, %42 ], [ %.2, %69 ]
  store i8 0, ptr %.056.lcssa, align 1
  %72 = ptrtoint ptr %.056.lcssa to i64
  %73 = ptrtoint ptr %13 to i64
  %reass.sub = sub i64 %72, %73
  %74 = add i64 %reass.sub, 1
  %75 = tail call ptr @cli_max_realloc(ptr noundef nonnull %13, i64 noundef %74) #17
  %.not69 = icmp eq ptr %75, null
  %76 = select i1 %.not69, ptr %13, ptr %75
  br label %77

77:                                               ; preds = %3, %5, %._crit_edge, %15
  %.0 = phi ptr [ null, %15 ], [ %76, %._crit_edge ], [ null, %5 ], [ null, %3 ]
  ret ptr %.0
}